target datalayout = "e-m:e-p270:32:32-p271:32:32-p272:64:64-i64:64-i128:128-f80:128-n8:16:32:64-S128"
target triple = "x86_64-pc-linux-gnu"

@.str = private unnamed_addr constant [30 x i8] c"Assertion %s failed at %s:%d\0A\00", align 1
@.str.1 = private unnamed_addr constant [20 x i8] c"filter_limit < 128U\00", align 1
@.str.2 = private unnamed_addr constant [20 x i8] c"libavcodec/vp3dsp.c\00", align 1

; Function Attrs: nounwind uwtable
define void @ff_vp3dsp_set_bounding_values(ptr noundef %0, i32 noundef %1) #0 {
  %3 = alloca ptr, align 8
  %4 = alloca i32, align 4
  %5 = alloca ptr, align 8
  %6 = alloca i32, align 4
  %7 = alloca i32, align 4
  store ptr %0, ptr %3, align 8, !tbaa !21
  store i32 %1, ptr %4, align 4, !tbaa !13
  call void @llvm.lifetime.start.p0(i64 8, ptr %5) #9
  %8 = load ptr, ptr %3, align 8, !tbaa !21
  %9 = getelementptr inbounds i32, ptr %8, i64 127
  store ptr %9, ptr %5, align 8, !tbaa !21
  call void @llvm.lifetime.start.p0(i64 4, ptr %6) #9
  call void @llvm.lifetime.start.p0(i64 4, ptr %7) #9
  br label %10

10:                                               ; preds = %2
  %11 = load i32, ptr %4, align 4, !tbaa !13
  %12 = icmp ult i32 %11, 128
  br i1 %12, label %14, label %13

13:                                               ; preds = %10
  call void (ptr, i32, ptr, ...) @av_log(ptr noundef null, i32 noundef 0, ptr noundef @.str, ptr noundef @.str.1, ptr noundef @.str.2, i32 noundef 483)
  call void @abort() #11
  unreachable

14:                                               ; preds = %10
  br label %15

15:                                               ; preds = %14
  br label %16

16:                                               ; preds = %15
  %17 = load ptr, ptr %3, align 8, !tbaa !21
  call void @llvm.memset.p0.i64(ptr align 4 %17, i8 0, i64 1024, i1 false)
  store i32 0, ptr %6, align 4, !tbaa !13
  br label %18

18:                                               ; preds = %35, %16
  %19 = load i32, ptr %6, align 4, !tbaa !13
  %20 = load i32, ptr %4, align 4, !tbaa !13
  %21 = icmp slt i32 %19, %20
  br i1 %21, label %22, label %38

22:                                               ; preds = %18
  %23 = load i32, ptr %6, align 4, !tbaa !13
  %24 = sub nsw i32 0, %23
  %25 = load ptr, ptr %5, align 8, !tbaa !21
  %26 = load i32, ptr %6, align 4, !tbaa !13
  %27 = sub nsw i32 0, %26
  %28 = sext i32 %27 to i64
  %29 = getelementptr inbounds i32, ptr %25, i64 %28
  store i32 %24, ptr %29, align 4, !tbaa !13
  %30 = load i32, ptr %6, align 4, !tbaa !13
  %31 = load ptr, ptr %5, align 8, !tbaa !21
  %32 = load i32, ptr %6, align 4, !tbaa !13
  %33 = sext i32 %32 to i64
  %34 = getelementptr inbounds i32, ptr %31, i64 %33
  store i32 %30, ptr %34, align 4, !tbaa !13
  br label %35

35:                                               ; preds = %22
  %36 = load i32, ptr %6, align 4, !tbaa !13
  %37 = add nsw i32 %36, 1
  store i32 %37, ptr %6, align 4, !tbaa !13
  br label %18, !llvm.loop !38

38:                                               ; preds = %18
  %39 = load i32, ptr %4, align 4, !tbaa !13
  store i32 %39, ptr %7, align 4, !tbaa !13
  store i32 %39, ptr %6, align 4, !tbaa !13
  br label %40

40:                                               ; preds = %61, %38
  %41 = load i32, ptr %6, align 4, !tbaa !13
  %42 = icmp slt i32 %41, 128
  br i1 %42, label %43, label %46

43:                                               ; preds = %40
  %44 = load i32, ptr %7, align 4, !tbaa !13
  %45 = icmp ne i32 %44, 0
  br label %46

46:                                               ; preds = %43, %40
  %47 = phi i1 [ false, %40 ], [ %45, %43 ]
  br i1 %47, label %48, label %66

48:                                               ; preds = %46
  %49 = load i32, ptr %7, align 4, !tbaa !13
  %50 = load ptr, ptr %5, align 8, !tbaa !21
  %51 = load i32, ptr %6, align 4, !tbaa !13
  %52 = sext i32 %51 to i64
  %53 = getelementptr inbounds i32, ptr %50, i64 %52
  store i32 %49, ptr %53, align 4, !tbaa !13
  %54 = load i32, ptr %7, align 4, !tbaa !13
  %55 = sub nsw i32 0, %54
  %56 = load ptr, ptr %5, align 8, !tbaa !21
  %57 = load i32, ptr %6, align 4, !tbaa !13
  %58 = sub nsw i32 0, %57
  %59 = sext i32 %58 to i64
  %60 = getelementptr inbounds i32, ptr %56, i64 %59
  store i32 %55, ptr %60, align 4, !tbaa !13
  br label %61

61:                                               ; preds = %48
  %62 = load i32, ptr %6, align 4, !tbaa !13
  %63 = add nsw i32 %62, 1
  store i32 %63, ptr %6, align 4, !tbaa !13
  %64 = load i32, ptr %7, align 4, !tbaa !13
  %65 = add nsw i32 %64, -1
  store i32 %65, ptr %7, align 4, !tbaa !13
  br label %40, !llvm.loop !39

66:                                               ; preds = %46
  %67 = load i32, ptr %7, align 4, !tbaa !13
  %68 = icmp ne i32 %67, 0
  br i1 %68, label %69, label %73

69:                                               ; preds = %66
  %70 = load i32, ptr %7, align 4, !tbaa !13
  %71 = load ptr, ptr %5, align 8, !tbaa !21
  %72 = getelementptr inbounds i32, ptr %71, i64 128
  store i32 %70, ptr %72, align 4, !tbaa !13
  br label %73

73:                                               ; preds = %69, %66
  %74 = load i32, ptr %4, align 4, !tbaa !13
  %75 = mul i32 %74, 33686018
  %76 = load ptr, ptr %5, align 8, !tbaa !21
  %77 = getelementptr inbounds i32, ptr %76, i64 130
  store i32 %75, ptr %77, align 4, !tbaa !13
  %78 = load ptr, ptr %5, align 8, !tbaa !21
  %79 = getelementptr inbounds i32, ptr %78, i64 129
  store i32 %75, ptr %79, align 4, !tbaa !13
  call void @llvm.lifetime.end.p0(i64 4, ptr %7) #9
  call void @llvm.lifetime.end.p0(i64 4, ptr %6) #9
  call void @llvm.lifetime.end.p0(i64 8, ptr %5) #9
  ret void
}