; Function Attrs: nounwind uwtable
define void @ff_vp3dsp_set_bounding_values(ptr noundef writeonly captures(none) %0, i32 noundef %1) local_unnamed_addr #3 {
  %3 = getelementptr inbounds nuw i8, ptr %0, i64 508
  %4 = icmp ult i32 %1, 128
  br i1 %4, label %6, label %5

5:                                                ; preds = %2
  tail call void (ptr, i32, ptr, ...) @av_log(ptr noundef null, i32 noundef 0, ptr noundef nonnull @.str, ptr noundef nonnull @.str.1, ptr noundef nonnull @.str.2, i32 noundef 483) #6
  tail call void @abort() #7
  unreachable

6:                                                ; preds = %2
  tail call void @llvm.memset.p0.i64(ptr noundef nonnull align 4 dereferenceable(1024) %0, i8 0, i64 1024, i1 false)
  %.not = icmp eq i32 %1, 0
  br i1 %.not, label %._crit_edge.thread, label %.lr.ph.preheader

.lr.ph.preheader:                                 ; preds = %6
  %wide.trip.count = zext nneg i32 %1 to i64
  br label %.lr.ph

.lr.ph33.preheader:                               ; preds = %.lr.ph
  %7 = zext nneg i32 %1 to i64
  br label %.lr.ph33

.lr.ph:                                           ; preds = %.lr.ph.preheader, %.lr.ph
  %indvars.iv = phi i64 [ 0, %.lr.ph.preheader ], [ %indvars.iv.next, %.lr.ph ]
  %8 = sub nsw i64 0, %indvars.iv
  %9 = getelementptr inbounds i32, ptr %3, i64 %8
  %10 = trunc nsw i64 %8 to i32
  store i32 %10, ptr %9, align 4, !tbaa !12
  %11 = getelementptr inbounds nuw i32, ptr %3, i64 %indvars.iv
  %12 = trunc nuw nsw i64 %indvars.iv to i32
  store i32 %12, ptr %11, align 4, !tbaa !12
  %indvars.iv.next = add nuw nsw i64 %indvars.iv, 1
  %exitcond.not = icmp eq i64 %indvars.iv.next, %wide.trip.count
  br i1 %exitcond.not, label %.lr.ph33.preheader, label %.lr.ph, !llvm.loop !30

.lr.ph33:                                         ; preds = %.lr.ph33.preheader, %.lr.ph33
  %indvars.iv39 = phi i64 [ %7, %.lr.ph33.preheader ], [ %indvars.iv.next40, %.lr.ph33 ]
  %.032 = phi i32 [ %1, %.lr.ph33.preheader ], [ %17, %.lr.ph33 ]
  %13 = getelementptr inbounds nuw i32, ptr %3, i64 %indvars.iv39
  store i32 %.032, ptr %13, align 4, !tbaa !12
  %14 = sub nsw i32 0, %.032
  %15 = sub nsw i64 0, %indvars.iv39
  %16 = getelementptr inbounds i32, ptr %3, i64 %15
  store i32 %14, ptr %16, align 4, !tbaa !12
  %indvars.iv.next40 = add nuw nsw i64 %indvars.iv39, 1
  %17 = add nsw i32 %.032, -1
  %18 = icmp samesign ult i64 %indvars.iv39, 127
  %19 = icmp ne i32 %17, 0
  %20 = select i1 %18, i1 %19, i1 false
  br i1 %20, label %.lr.ph33, label %._crit_edge, !llvm.loop !31

._crit_edge:                                      ; preds = %.lr.ph33
  br i1 %19, label %21, label %._crit_edge.thread

21:                                               ; preds = %._crit_edge
  %22 = getelementptr inbounds nuw i8, ptr %0, i64 1020
  store i32 %17, ptr %22, align 4, !tbaa !12
  br label %._crit_edge.thread

._crit_edge.thread:                               ; preds = %6, %21, %._crit_edge
  %23 = mul nuw i32 %1, 33686018
  %24 = getelementptr inbounds nuw i8, ptr %0, i64 1028
  store i32 %23, ptr %24, align 4, !tbaa !12
  %25 = getelementptr inbounds nuw i8, ptr %0, i64 1024
  store i32 %23, ptr %25, align 4, !tbaa !12
  ret void
}